target datalayout = "e-m:e-p270:32:32-p271:32:32-p272:64:64-i64:64-i128:128-f80:128-n8:16:32:64-S128"
target triple = "x86_64-pc-linux-gnu"

%struct.hwloc_infos_s = type { ptr, i32, i32 }
%struct.hwloc_obj = type { i32, ptr, i32, ptr, i64, ptr, i32, i32, ptr, ptr, ptr, i32, ptr, ptr, i32, ptr, ptr, ptr, i32, i32, ptr, i32, ptr, i32, ptr, ptr, ptr, ptr, ptr, %struct.hwloc_infos_s, ptr, i64 }
%struct.hwloc_utils_userdata = type { ptr, i64, ptr, ptr }

; Function Attrs: inlinehint nounwind uwtable
define internal void @hwloc_utils_userdata_export_cb(ptr noundef %0, ptr noundef %1, ptr noundef %2) #4 {
  %4 = alloca ptr, align 8
  %5 = alloca ptr, align 8
  %6 = alloca ptr, align 8
  %7 = alloca ptr, align 8
  store ptr %0, ptr %4, align 8, !tbaa !46
  store ptr %1, ptr %5, align 8, !tbaa !25
  store ptr %2, ptr %6, align 8, !tbaa !35
  call void @llvm.lifetime.start.p0(i64 8, ptr %7) #11
  %8 = load ptr, ptr %6, align 8, !tbaa !35
  %9 = getelementptr inbounds nuw %struct.hwloc_obj, ptr %8, i32 0, i32 30
  %10 = load ptr, ptr %9, align 8, !tbaa !57
  store ptr %10, ptr %7, align 8, !tbaa !49
  br label %11

11:                                               ; preds = %33, %3
  %12 = load ptr, ptr %7, align 8, !tbaa !49
  %13 = icmp ne ptr %12, null
  br i1 %13, label %14, label %37

14:                                               ; preds = %11
  %15 = load ptr, ptr %7, align 8, !tbaa !49
  %16 = getelementptr inbounds nuw %struct.hwloc_utils_userdata, ptr %15, i32 0, i32 2
  %17 = load ptr, ptr %16, align 8, !tbaa !55
  %18 = icmp ne ptr %17, null
  br i1 %18, label %19, label %33

19:                                               ; preds = %14
  %20 = load ptr, ptr %4, align 8, !tbaa !46
  %21 = load ptr, ptr %5, align 8, !tbaa !25
  %22 = load ptr, ptr %6, align 8, !tbaa !35
  %23 = load ptr, ptr %7, align 8, !tbaa !49
  %24 = getelementptr inbounds nuw %struct.hwloc_utils_userdata, ptr %23, i32 0, i32 0
  %25 = load ptr, ptr %24, align 8, !tbaa !52
  %26 = load ptr, ptr %7, align 8, !tbaa !49
  %27 = getelementptr inbounds nuw %struct.hwloc_utils_userdata, ptr %26, i32 0, i32 2
  %28 = load ptr, ptr %27, align 8, !tbaa !55
  %29 = load ptr, ptr %7, align 8, !tbaa !49
  %30 = getelementptr inbounds nuw %struct.hwloc_utils_userdata, ptr %29, i32 0, i32 1
  %31 = load i64, ptr %30, align 8, !tbaa !54
  %32 = call i32 @hwloc_export_obj_userdata(ptr noundef %20, ptr noundef %21, ptr noundef %22, ptr noundef %25, ptr noundef %28, i64 noundef %31)
  br label %33

33:                                               ; preds = %19, %14
  %34 = load ptr, ptr %7, align 8, !tbaa !49
  %35 = getelementptr inbounds nuw %struct.hwloc_utils_userdata, ptr %34, i32 0, i32 3
  %36 = load ptr, ptr %35, align 8, !tbaa !56
  store ptr %36, ptr %7, align 8, !tbaa !49
  br label %11, !llvm.loop !61

37:                                               ; preds = %11
  call void @llvm.lifetime.end.p0(i64 8, ptr %7) #11
  ret void
}