; Function Attrs: inlinehint nounwind uwtable
define internal void @hwloc_utils_userdata_export_cb(ptr noundef %0, ptr noundef %1, ptr noundef %2) #12 {
  %4 = getelementptr inbounds nuw i8, ptr %2, i64 232
  %.012 = load ptr, ptr %4, align 8, !tbaa !52
  %.not13 = icmp eq ptr %.012, null
  br i1 %.not13, label %._crit_edge, label %.lr.ph

.lr.ph:                                           ; preds = %3, %12
  %.014 = phi ptr [ %.0, %12 ], [ %.012, %3 ]
  %5 = getelementptr inbounds nuw i8, ptr %.014, i64 16
  %6 = load ptr, ptr %5, align 8, !tbaa !50
  %.not11 = icmp eq ptr %6, null
  br i1 %.not11, label %12, label %7

7:                                                ; preds = %.lr.ph
  %8 = load ptr, ptr %.014, align 8, !tbaa !47
  %9 = getelementptr inbounds nuw i8, ptr %.014, i64 8
  %10 = load i64, ptr %9, align 8, !tbaa !49
  %11 = tail call i32 @hwloc_export_obj_userdata(ptr noundef %0, ptr noundef %1, ptr noundef %2, ptr noundef %8, ptr noundef nonnull %6, i64 noundef %10) #27
  br label %12

12:                                               ; preds = %7, %.lr.ph
  %13 = getelementptr inbounds nuw i8, ptr %.014, i64 24
  %.0 = load ptr, ptr %13, align 8, !tbaa !52
  %.not = icmp eq ptr %.0, null
  br i1 %.not, label %._crit_edge, label %.lr.ph, !llvm.loop !53

._crit_edge:                                      ; preds = %12, %3
  ret void
}